(dp1
S'output'
p2
S"<type 'exceptions.TypeError'> cannot concatenate 'str' and 'long' objects"
p3
sS'layer'
p4
S'/home/vepagautam/web2py/applications/NoteKeeper/controllers/default.py'
p5
sS'code'
p6
S'# -*- coding: utf-8 -*-\n# this file is released under public domain and you can use without limitations\n\n#########################################################################\n## This is a sample controller\n## - index is the default action of any application\n## - user is required for authentication and authorization\n## - download is for downloading files uploaded in the db (does streaming)\n## - call exposes all registered services (none by default)\n#########################################################################\n\n\ndef index():\n    """\n    example action using the internationalization operator T and flash\n    rendered by views/default/index.html or views/generic.html\n\n    if you need a simple wiki simply replace the two lines below with:\n    return auth.wiki()\n    """\n    response.flash = T("Welcome to NoteKeeper!")\n    return dict(message=T(\'\'))\n\n\ndef user():\n    """\n    exposes:\n    http://..../[app]/default/user/login\n    http://..../[app]/default/user/logout\n    http://..../[app]/default/user/register\n    http://..../[app]/default/user/profile\n    http://..../[app]/default/user/retrieve_password\n    http://..../[app]/default/user/change_password\n    http://..../[app]/default/user/manage_users (requires membership in\n    use @auth.requires_login()\n        @auth.requires_membership(\'group name\')\n        @auth.requires_permission(\'read\',\'table name\',record_id)\n    to decorate functions that need access control\n    """\n    return dict(form=auth())\n\n@cache.action()\ndef download():\n    """\n    allows downloading of uploaded files\n    http://..../[app]/default/download/[filename]\n    """\n    return response.download(request, db)\n\n\ndef call():\n    """\n    exposes services. for example:\n    http://..../[app]/default/call/jsonrpc\n    decorate with @services.jsonrpc the functions to expose\n    supports xml, json, xmlrpc, jsonrpc, amfrpc, rss, csv\n    """\n    return service()\n\n\n@auth.requires_signature()\ndef data():\n    """\n    http://..../[app]/default/data/tables\n    http://..../[app]/default/data/create/[table]\n    http://..../[app]/default/data/read/[table]/[id]\n    http://..../[app]/default/data/update/[table]/[id]\n    http://..../[app]/default/data/delete/[table]/[id]\n    http://..../[app]/default/data/select/[table]\n    http://..../[app]/default/data/search/[table]\n    but URLs must be signed, i.e. linked with\n      A(\'table\',_href=URL(\'data/tables\',user_signature=True))\n    or with the signed load operator\n      LOAD(\'default\',\'data.load\',args=\'tables\',ajax=True,user_signature=True)\n    """\n    return dict(form=crud())\n\ndef dispnotes():\n\treturn dict()\n\ndef makenotes():\n    return dict()\n\ndef notes():\n    return dict()\n\ndef todolist():\n    if request.vars.sub=="Add to List":\n        val=False\n        db.ToDoList.insert(checkbox=val,task=request.vars.content)\n    return dict()\n\ndef todolistprint():\n    s=""\n    new=db().select(db.ToDoList.ALL)\n    for i in new:\n        s+="<input type=\'checkbox\' id="+ "\'" + i.id + "\'" + " onchange=\'test();\' /> &nbsp" + i.task + "<br>"\n    return s\n\nresponse._vars=response._caller(todolistprint)\n'
p7
sS'snapshot'
p8
(dp9
sS'traceback'
p10
S'Traceback (most recent call last):\n  File "/home/vepagautam/web2py/gluon/restricted.py", line 217, in restricted\n    exec ccode in environment\n  File "/home/vepagautam/web2py/applications/NoteKeeper/controllers/default.py", line 100, in <module>\n  File "/home/vepagautam/web2py/gluon/globals.py", line 385, in <lambda>\n    self._caller = lambda f: f()\n  File "/home/vepagautam/web2py/applications/NoteKeeper/controllers/default.py", line 97, in todolistprint\n    s+="<input type=\'checkbox\' id="+ "\'" + i.id + "\'" + " onchange=\'test();\' /> &nbsp" + i.task + "<br>"\nTypeError: cannot concatenate \'str\' and \'long\' objects\n'
p11
s.